
generated/rv32ui-p-slli:     file format elf32-littleriscv


Disassembly of section .text.init:

00000000 <_start>:
   0:	0500006f          	j	50 <reset_vector>

00000004 <trap_vector>:
   4:	34202f73          	csrr	t5,mcause
   8:	00800f93          	li	t6,8
   c:	03ff0863          	beq	t5,t6,3c <write_tohost>
  10:	00900f93          	li	t6,9
  14:	03ff0463          	beq	t5,t6,3c <write_tohost>
  18:	00b00f93          	li	t6,11
  1c:	03ff0063          	beq	t5,t6,3c <write_tohost>
  20:	00000f13          	li	t5,0
  24:	000f0463          	beqz	t5,2c <trap_vector+0x28>
  28:	000f0067          	jr	t5
  2c:	34202f73          	csrr	t5,mcause
  30:	000f5463          	bgez	t5,38 <handle_exception>
  34:	0040006f          	j	38 <handle_exception>

00000038 <handle_exception>:
  38:	5391e193          	or	gp,gp,1337

0000003c <write_tohost>:
  3c:	00001f17          	auipc	t5,0x1
  40:	fc3f2223          	sw	gp,-60(t5) # 1000 <tohost>
  44:	00001f17          	auipc	t5,0x1
  48:	fc0f2023          	sw	zero,-64(t5) # 1004 <tohost+0x4>
  4c:	ff1ff06f          	j	3c <write_tohost>

00000050 <reset_vector>:
  50:	00000093          	li	ra,0
  54:	00000113          	li	sp,0
  58:	00000193          	li	gp,0
  5c:	00000213          	li	tp,0
  60:	00000293          	li	t0,0
  64:	00000313          	li	t1,0
  68:	00000393          	li	t2,0
  6c:	00000413          	li	s0,0
  70:	00000493          	li	s1,0
  74:	00000513          	li	a0,0
  78:	00000593          	li	a1,0
  7c:	00000613          	li	a2,0
  80:	00000693          	li	a3,0
  84:	00000713          	li	a4,0
  88:	00000793          	li	a5,0
  8c:	00000813          	li	a6,0
  90:	00000893          	li	a7,0
  94:	00000913          	li	s2,0
  98:	00000993          	li	s3,0
  9c:	00000a13          	li	s4,0
  a0:	00000a93          	li	s5,0
  a4:	00000b13          	li	s6,0
  a8:	00000b93          	li	s7,0
  ac:	00000c13          	li	s8,0
  b0:	00000c93          	li	s9,0
  b4:	00000d13          	li	s10,0
  b8:	00000d93          	li	s11,0
  bc:	00000e13          	li	t3,0
  c0:	00000e93          	li	t4,0
  c4:	00000f13          	li	t5,0
  c8:	00000f93          	li	t6,0
  cc:	f1402573          	csrr	a0,mhartid
  d0:	00051063          	bnez	a0,d0 <reset_vector+0x80>
  d4:	00000297          	auipc	t0,0x0
  d8:	01028293          	add	t0,t0,16 # e4 <reset_vector+0x94>
  dc:	30529073          	csrw	mtvec,t0
  e0:	74445073          	csrw	0x744,8
  e4:	00000297          	auipc	t0,0x0
  e8:	01028293          	add	t0,t0,16 # f4 <reset_vector+0xa4>
  ec:	30529073          	csrw	mtvec,t0
  f0:	18005073          	csrw	satp,0
  f4:	00000297          	auipc	t0,0x0
  f8:	02028293          	add	t0,t0,32 # 114 <reset_vector+0xc4>
  fc:	30529073          	csrw	mtvec,t0
 100:	800002b7          	lui	t0,0x80000
 104:	fff28293          	add	t0,t0,-1 # 7fffffff <_end+0x7fffdfff>
 108:	3b029073          	csrw	pmpaddr0,t0
 10c:	01f00293          	li	t0,31
 110:	3a029073          	csrw	pmpcfg0,t0
 114:	30405073          	csrw	mie,0
 118:	00000297          	auipc	t0,0x0
 11c:	01428293          	add	t0,t0,20 # 12c <reset_vector+0xdc>
 120:	30529073          	csrw	mtvec,t0
 124:	30205073          	csrw	medeleg,0
 128:	30305073          	csrw	mideleg,0
 12c:	00000193          	li	gp,0
 130:	00000297          	auipc	t0,0x0
 134:	ed428293          	add	t0,t0,-300 # 4 <trap_vector>
 138:	30529073          	csrw	mtvec,t0
 13c:	00100513          	li	a0,1
 140:	01f51513          	sll	a0,a0,0x1f
 144:	02054463          	bltz	a0,16c <reset_vector+0x11c>
 148:	0ff0000f          	fence
 14c:	00100193          	li	gp,1
 150:	05d00893          	li	a7,93
 154:	00000513          	li	a0,0
 158:	00100293          	li	t0,1
 15c:	00200337          	lui	t1,0x200
 160:	00830313          	add	t1,t1,8 # 200008 <_end+0x1fe008>
 164:	00532023          	sw	t0,0(t1)
 168:	00000073          	ecall
 16c:	00000293          	li	t0,0
 170:	00028a63          	beqz	t0,184 <reset_vector+0x134>
 174:	10529073          	csrw	stvec,t0
 178:	0000b2b7          	lui	t0,0xb
 17c:	10928293          	add	t0,t0,265 # b109 <_end+0x9109>
 180:	30229073          	csrw	medeleg,t0
 184:	30005073          	csrw	mstatus,0
 188:	00000297          	auipc	t0,0x0
 18c:	01428293          	add	t0,t0,20 # 19c <test_2>
 190:	34129073          	csrw	mepc,t0
 194:	f1402573          	csrr	a0,mhartid
 198:	30200073          	mret

0000019c <test_2>:
 19c:	00200193          	li	gp,2
 1a0:	00100093          	li	ra,1
 1a4:	00009713          	sll	a4,ra,0x0
 1a8:	00100393          	li	t2,1
 1ac:	26771a63          	bne	a4,t2,420 <fail>

000001b0 <test_3>:
 1b0:	00300193          	li	gp,3
 1b4:	00100093          	li	ra,1
 1b8:	00109713          	sll	a4,ra,0x1
 1bc:	00200393          	li	t2,2
 1c0:	26771063          	bne	a4,t2,420 <fail>

000001c4 <test_4>:
 1c4:	00400193          	li	gp,4
 1c8:	00100093          	li	ra,1
 1cc:	00709713          	sll	a4,ra,0x7
 1d0:	08000393          	li	t2,128
 1d4:	24771663          	bne	a4,t2,420 <fail>

000001d8 <test_5>:
 1d8:	00500193          	li	gp,5
 1dc:	00100093          	li	ra,1
 1e0:	00e09713          	sll	a4,ra,0xe
 1e4:	000043b7          	lui	t2,0x4
 1e8:	22771c63          	bne	a4,t2,420 <fail>

000001ec <test_6>:
 1ec:	00600193          	li	gp,6
 1f0:	00100093          	li	ra,1
 1f4:	01f09713          	sll	a4,ra,0x1f
 1f8:	800003b7          	lui	t2,0x80000
 1fc:	22771263          	bne	a4,t2,420 <fail>

00000200 <test_7>:
 200:	00700193          	li	gp,7
 204:	fff00093          	li	ra,-1
 208:	00009713          	sll	a4,ra,0x0
 20c:	fff00393          	li	t2,-1
 210:	20771863          	bne	a4,t2,420 <fail>

00000214 <test_8>:
 214:	00800193          	li	gp,8
 218:	fff00093          	li	ra,-1
 21c:	00109713          	sll	a4,ra,0x1
 220:	ffe00393          	li	t2,-2
 224:	1e771e63          	bne	a4,t2,420 <fail>

00000228 <test_9>:
 228:	00900193          	li	gp,9
 22c:	fff00093          	li	ra,-1
 230:	00709713          	sll	a4,ra,0x7
 234:	f8000393          	li	t2,-128
 238:	1e771463          	bne	a4,t2,420 <fail>

0000023c <test_10>:
 23c:	00a00193          	li	gp,10
 240:	fff00093          	li	ra,-1
 244:	00e09713          	sll	a4,ra,0xe
 248:	ffffc3b7          	lui	t2,0xffffc
 24c:	1c771a63          	bne	a4,t2,420 <fail>

00000250 <test_11>:
 250:	00b00193          	li	gp,11
 254:	fff00093          	li	ra,-1
 258:	01f09713          	sll	a4,ra,0x1f
 25c:	800003b7          	lui	t2,0x80000
 260:	1c771063          	bne	a4,t2,420 <fail>

00000264 <test_12>:
 264:	00c00193          	li	gp,12
 268:	212120b7          	lui	ra,0x21212
 26c:	12108093          	add	ra,ra,289 # 21212121 <_end+0x21210121>
 270:	00009713          	sll	a4,ra,0x0
 274:	212123b7          	lui	t2,0x21212
 278:	12138393          	add	t2,t2,289 # 21212121 <_end+0x21210121>
 27c:	1a771263          	bne	a4,t2,420 <fail>

00000280 <test_13>:
 280:	00d00193          	li	gp,13
 284:	212120b7          	lui	ra,0x21212
 288:	12108093          	add	ra,ra,289 # 21212121 <_end+0x21210121>
 28c:	00109713          	sll	a4,ra,0x1
 290:	424243b7          	lui	t2,0x42424
 294:	24238393          	add	t2,t2,578 # 42424242 <_end+0x42422242>
 298:	18771463          	bne	a4,t2,420 <fail>

0000029c <test_14>:
 29c:	00e00193          	li	gp,14
 2a0:	212120b7          	lui	ra,0x21212
 2a4:	12108093          	add	ra,ra,289 # 21212121 <_end+0x21210121>
 2a8:	00709713          	sll	a4,ra,0x7
 2ac:	909093b7          	lui	t2,0x90909
 2b0:	08038393          	add	t2,t2,128 # 90909080 <_end+0x90907080>
 2b4:	16771663          	bne	a4,t2,420 <fail>

000002b8 <test_15>:
 2b8:	00f00193          	li	gp,15
 2bc:	212120b7          	lui	ra,0x21212
 2c0:	12108093          	add	ra,ra,289 # 21212121 <_end+0x21210121>
 2c4:	00e09713          	sll	a4,ra,0xe
 2c8:	484843b7          	lui	t2,0x48484
 2cc:	14771a63          	bne	a4,t2,420 <fail>

000002d0 <test_16>:
 2d0:	01000193          	li	gp,16
 2d4:	212120b7          	lui	ra,0x21212
 2d8:	12108093          	add	ra,ra,289 # 21212121 <_end+0x21210121>
 2dc:	01f09713          	sll	a4,ra,0x1f
 2e0:	800003b7          	lui	t2,0x80000
 2e4:	12771e63          	bne	a4,t2,420 <fail>

000002e8 <test_17>:
 2e8:	01100193          	li	gp,17
 2ec:	00100093          	li	ra,1
 2f0:	00709093          	sll	ra,ra,0x7
 2f4:	08000393          	li	t2,128
 2f8:	12709463          	bne	ra,t2,420 <fail>

000002fc <test_18>:
 2fc:	01200193          	li	gp,18
 300:	00000213          	li	tp,0
 304:	00100093          	li	ra,1
 308:	00709713          	sll	a4,ra,0x7
 30c:	00070313          	mv	t1,a4
 310:	00120213          	add	tp,tp,1 # 1 <_start+0x1>
 314:	00200293          	li	t0,2
 318:	fe5216e3          	bne	tp,t0,304 <test_18+0x8>
 31c:	08000393          	li	t2,128
 320:	10731063          	bne	t1,t2,420 <fail>

00000324 <test_19>:
 324:	01300193          	li	gp,19
 328:	00000213          	li	tp,0
 32c:	00100093          	li	ra,1
 330:	00e09713          	sll	a4,ra,0xe
 334:	00000013          	nop
 338:	00070313          	mv	t1,a4
 33c:	00120213          	add	tp,tp,1 # 1 <_start+0x1>
 340:	00200293          	li	t0,2
 344:	fe5214e3          	bne	tp,t0,32c <test_19+0x8>
 348:	000043b7          	lui	t2,0x4
 34c:	0c731a63          	bne	t1,t2,420 <fail>

00000350 <test_20>:
 350:	01400193          	li	gp,20
 354:	00000213          	li	tp,0
 358:	00100093          	li	ra,1
 35c:	01f09713          	sll	a4,ra,0x1f
 360:	00000013          	nop
 364:	00000013          	nop
 368:	00070313          	mv	t1,a4
 36c:	00120213          	add	tp,tp,1 # 1 <_start+0x1>
 370:	00200293          	li	t0,2
 374:	fe5212e3          	bne	tp,t0,358 <test_20+0x8>
 378:	800003b7          	lui	t2,0x80000
 37c:	0a731263          	bne	t1,t2,420 <fail>

00000380 <test_21>:
 380:	01500193          	li	gp,21
 384:	00000213          	li	tp,0
 388:	00100093          	li	ra,1
 38c:	00709713          	sll	a4,ra,0x7
 390:	00120213          	add	tp,tp,1 # 1 <_start+0x1>
 394:	00200293          	li	t0,2
 398:	fe5218e3          	bne	tp,t0,388 <test_21+0x8>
 39c:	08000393          	li	t2,128
 3a0:	08771063          	bne	a4,t2,420 <fail>

000003a4 <test_22>:
 3a4:	01600193          	li	gp,22
 3a8:	00000213          	li	tp,0
 3ac:	00100093          	li	ra,1
 3b0:	00000013          	nop
 3b4:	00e09713          	sll	a4,ra,0xe
 3b8:	00120213          	add	tp,tp,1 # 1 <_start+0x1>
 3bc:	00200293          	li	t0,2
 3c0:	fe5216e3          	bne	tp,t0,3ac <test_22+0x8>
 3c4:	000043b7          	lui	t2,0x4
 3c8:	04771c63          	bne	a4,t2,420 <fail>

000003cc <test_23>:
 3cc:	01700193          	li	gp,23
 3d0:	00000213          	li	tp,0
 3d4:	00100093          	li	ra,1
 3d8:	00000013          	nop
 3dc:	00000013          	nop
 3e0:	01f09713          	sll	a4,ra,0x1f
 3e4:	00120213          	add	tp,tp,1 # 1 <_start+0x1>
 3e8:	00200293          	li	t0,2
 3ec:	fe5214e3          	bne	tp,t0,3d4 <test_23+0x8>
 3f0:	800003b7          	lui	t2,0x80000
 3f4:	02771663          	bne	a4,t2,420 <fail>

000003f8 <test_24>:
 3f8:	01800193          	li	gp,24
 3fc:	01f01093          	sll	ra,zero,0x1f
 400:	00000393          	li	t2,0
 404:	00709e63          	bne	ra,t2,420 <fail>

00000408 <test_25>:
 408:	01900193          	li	gp,25
 40c:	02100093          	li	ra,33
 410:	01409013          	sll	zero,ra,0x14
 414:	00000393          	li	t2,0
 418:	00701463          	bne	zero,t2,420 <fail>
 41c:	02301863          	bne	zero,gp,44c <pass>

00000420 <fail>:
 420:	0ff0000f          	fence
 424:	00018063          	beqz	gp,424 <fail+0x4>
 428:	00119193          	sll	gp,gp,0x1
 42c:	0011e193          	or	gp,gp,1
 430:	05d00893          	li	a7,93
 434:	00018513          	mv	a0,gp
 438:	00100293          	li	t0,1
 43c:	00200337          	lui	t1,0x200
 440:	00830313          	add	t1,t1,8 # 200008 <_end+0x1fe008>
 444:	00532023          	sw	t0,0(t1)
 448:	00000073          	ecall

0000044c <pass>:
 44c:	0ff0000f          	fence
 450:	00100193          	li	gp,1
 454:	05d00893          	li	a7,93
 458:	00000513          	li	a0,0
 45c:	00100293          	li	t0,1
 460:	00200337          	lui	t1,0x200
 464:	00830313          	add	t1,t1,8 # 200008 <_end+0x1fe008>
 468:	00532023          	sw	t0,0(t1)
 46c:	00000073          	ecall
 470:	c0001073          	unimp
 474:	0000                	.2byte	0x0
 476:	0000                	.2byte	0x0
 478:	0000                	.2byte	0x0
 47a:	0000                	.2byte	0x0
