
generated/rv32ui-p-slti:     file format elf32-littleriscv


Disassembly of section .text.init:

00000000 <_start>:
   0:	0500006f          	j	50 <reset_vector>

00000004 <trap_vector>:
   4:	34202f73          	csrr	t5,mcause
   8:	00800f93          	li	t6,8
   c:	03ff0863          	beq	t5,t6,3c <write_tohost>
  10:	00900f93          	li	t6,9
  14:	03ff0463          	beq	t5,t6,3c <write_tohost>
  18:	00b00f93          	li	t6,11
  1c:	03ff0063          	beq	t5,t6,3c <write_tohost>
  20:	00000f13          	li	t5,0
  24:	000f0463          	beqz	t5,2c <trap_vector+0x28>
  28:	000f0067          	jr	t5
  2c:	34202f73          	csrr	t5,mcause
  30:	000f5463          	bgez	t5,38 <handle_exception>
  34:	0040006f          	j	38 <handle_exception>

00000038 <handle_exception>:
  38:	5391e193          	or	gp,gp,1337

0000003c <write_tohost>:
  3c:	00001f17          	auipc	t5,0x1
  40:	fc3f2223          	sw	gp,-60(t5) # 1000 <tohost>
  44:	00001f17          	auipc	t5,0x1
  48:	fc0f2023          	sw	zero,-64(t5) # 1004 <tohost+0x4>
  4c:	ff1ff06f          	j	3c <write_tohost>

00000050 <reset_vector>:
  50:	00000093          	li	ra,0
  54:	00000113          	li	sp,0
  58:	00000193          	li	gp,0
  5c:	00000213          	li	tp,0
  60:	00000293          	li	t0,0
  64:	00000313          	li	t1,0
  68:	00000393          	li	t2,0
  6c:	00000413          	li	s0,0
  70:	00000493          	li	s1,0
  74:	00000513          	li	a0,0
  78:	00000593          	li	a1,0
  7c:	00000613          	li	a2,0
  80:	00000693          	li	a3,0
  84:	00000713          	li	a4,0
  88:	00000793          	li	a5,0
  8c:	00000813          	li	a6,0
  90:	00000893          	li	a7,0
  94:	00000913          	li	s2,0
  98:	00000993          	li	s3,0
  9c:	00000a13          	li	s4,0
  a0:	00000a93          	li	s5,0
  a4:	00000b13          	li	s6,0
  a8:	00000b93          	li	s7,0
  ac:	00000c13          	li	s8,0
  b0:	00000c93          	li	s9,0
  b4:	00000d13          	li	s10,0
  b8:	00000d93          	li	s11,0
  bc:	00000e13          	li	t3,0
  c0:	00000e93          	li	t4,0
  c4:	00000f13          	li	t5,0
  c8:	00000f93          	li	t6,0
  cc:	f1402573          	csrr	a0,mhartid
  d0:	00051063          	bnez	a0,d0 <reset_vector+0x80>
  d4:	00000297          	auipc	t0,0x0
  d8:	01028293          	add	t0,t0,16 # e4 <reset_vector+0x94>
  dc:	30529073          	csrw	mtvec,t0
  e0:	74445073          	csrw	0x744,8
  e4:	00000297          	auipc	t0,0x0
  e8:	01028293          	add	t0,t0,16 # f4 <reset_vector+0xa4>
  ec:	30529073          	csrw	mtvec,t0
  f0:	18005073          	csrw	satp,0
  f4:	00000297          	auipc	t0,0x0
  f8:	02028293          	add	t0,t0,32 # 114 <reset_vector+0xc4>
  fc:	30529073          	csrw	mtvec,t0
 100:	800002b7          	lui	t0,0x80000
 104:	fff28293          	add	t0,t0,-1 # 7fffffff <_end+0x7fffdfff>
 108:	3b029073          	csrw	pmpaddr0,t0
 10c:	01f00293          	li	t0,31
 110:	3a029073          	csrw	pmpcfg0,t0
 114:	30405073          	csrw	mie,0
 118:	00000297          	auipc	t0,0x0
 11c:	01428293          	add	t0,t0,20 # 12c <reset_vector+0xdc>
 120:	30529073          	csrw	mtvec,t0
 124:	30205073          	csrw	medeleg,0
 128:	30305073          	csrw	mideleg,0
 12c:	00000193          	li	gp,0
 130:	00000297          	auipc	t0,0x0
 134:	ed428293          	add	t0,t0,-300 # 4 <trap_vector>
 138:	30529073          	csrw	mtvec,t0
 13c:	00100513          	li	a0,1
 140:	01f51513          	sll	a0,a0,0x1f
 144:	02054463          	bltz	a0,16c <reset_vector+0x11c>
 148:	0ff0000f          	fence
 14c:	00100193          	li	gp,1
 150:	05d00893          	li	a7,93
 154:	00000513          	li	a0,0
 158:	00100293          	li	t0,1
 15c:	00200337          	lui	t1,0x200
 160:	00830313          	add	t1,t1,8 # 200008 <_end+0x1fe008>
 164:	00532023          	sw	t0,0(t1)
 168:	00000073          	ecall
 16c:	00000293          	li	t0,0
 170:	00028a63          	beqz	t0,184 <reset_vector+0x134>
 174:	10529073          	csrw	stvec,t0
 178:	0000b2b7          	lui	t0,0xb
 17c:	10928293          	add	t0,t0,265 # b109 <_end+0x9109>
 180:	30229073          	csrw	medeleg,t0
 184:	30005073          	csrw	mstatus,0
 188:	00000297          	auipc	t0,0x0
 18c:	01428293          	add	t0,t0,20 # 19c <test_2>
 190:	34129073          	csrw	mepc,t0
 194:	f1402573          	csrr	a0,mhartid
 198:	30200073          	mret

0000019c <test_2>:
 19c:	00200193          	li	gp,2
 1a0:	00000093          	li	ra,0
 1a4:	0000a713          	slti	a4,ra,0
 1a8:	00000393          	li	t2,0
 1ac:	26771263          	bne	a4,t2,410 <fail>

000001b0 <test_3>:
 1b0:	00300193          	li	gp,3
 1b4:	00100093          	li	ra,1
 1b8:	0010a713          	slti	a4,ra,1
 1bc:	00000393          	li	t2,0
 1c0:	24771863          	bne	a4,t2,410 <fail>

000001c4 <test_4>:
 1c4:	00400193          	li	gp,4
 1c8:	00300093          	li	ra,3
 1cc:	0070a713          	slti	a4,ra,7
 1d0:	00100393          	li	t2,1
 1d4:	22771e63          	bne	a4,t2,410 <fail>

000001d8 <test_5>:
 1d8:	00500193          	li	gp,5
 1dc:	00700093          	li	ra,7
 1e0:	0030a713          	slti	a4,ra,3
 1e4:	00000393          	li	t2,0
 1e8:	22771463          	bne	a4,t2,410 <fail>

000001ec <test_6>:
 1ec:	00600193          	li	gp,6
 1f0:	00000093          	li	ra,0
 1f4:	8000a713          	slti	a4,ra,-2048
 1f8:	00000393          	li	t2,0
 1fc:	20771a63          	bne	a4,t2,410 <fail>

00000200 <test_7>:
 200:	00700193          	li	gp,7
 204:	800000b7          	lui	ra,0x80000
 208:	0000a713          	slti	a4,ra,0
 20c:	00100393          	li	t2,1
 210:	20771063          	bne	a4,t2,410 <fail>

00000214 <test_8>:
 214:	00800193          	li	gp,8
 218:	800000b7          	lui	ra,0x80000
 21c:	8000a713          	slti	a4,ra,-2048
 220:	00100393          	li	t2,1
 224:	1e771663          	bne	a4,t2,410 <fail>

00000228 <test_9>:
 228:	00900193          	li	gp,9
 22c:	00000093          	li	ra,0
 230:	7ff0a713          	slti	a4,ra,2047
 234:	00100393          	li	t2,1
 238:	1c771c63          	bne	a4,t2,410 <fail>

0000023c <test_10>:
 23c:	00a00193          	li	gp,10
 240:	800000b7          	lui	ra,0x80000
 244:	fff08093          	add	ra,ra,-1 # 7fffffff <_end+0x7fffdfff>
 248:	0000a713          	slti	a4,ra,0
 24c:	00000393          	li	t2,0
 250:	1c771063          	bne	a4,t2,410 <fail>

00000254 <test_11>:
 254:	00b00193          	li	gp,11
 258:	800000b7          	lui	ra,0x80000
 25c:	fff08093          	add	ra,ra,-1 # 7fffffff <_end+0x7fffdfff>
 260:	7ff0a713          	slti	a4,ra,2047
 264:	00000393          	li	t2,0
 268:	1a771463          	bne	a4,t2,410 <fail>

0000026c <test_12>:
 26c:	00c00193          	li	gp,12
 270:	800000b7          	lui	ra,0x80000
 274:	7ff0a713          	slti	a4,ra,2047
 278:	00100393          	li	t2,1
 27c:	18771a63          	bne	a4,t2,410 <fail>

00000280 <test_13>:
 280:	00d00193          	li	gp,13
 284:	800000b7          	lui	ra,0x80000
 288:	fff08093          	add	ra,ra,-1 # 7fffffff <_end+0x7fffdfff>
 28c:	8000a713          	slti	a4,ra,-2048
 290:	00000393          	li	t2,0
 294:	16771e63          	bne	a4,t2,410 <fail>

00000298 <test_14>:
 298:	00e00193          	li	gp,14
 29c:	00000093          	li	ra,0
 2a0:	fff0a713          	slti	a4,ra,-1
 2a4:	00000393          	li	t2,0
 2a8:	16771463          	bne	a4,t2,410 <fail>

000002ac <test_15>:
 2ac:	00f00193          	li	gp,15
 2b0:	fff00093          	li	ra,-1
 2b4:	0010a713          	slti	a4,ra,1
 2b8:	00100393          	li	t2,1
 2bc:	14771a63          	bne	a4,t2,410 <fail>

000002c0 <test_16>:
 2c0:	01000193          	li	gp,16
 2c4:	fff00093          	li	ra,-1
 2c8:	fff0a713          	slti	a4,ra,-1
 2cc:	00000393          	li	t2,0
 2d0:	14771063          	bne	a4,t2,410 <fail>

000002d4 <test_17>:
 2d4:	01100193          	li	gp,17
 2d8:	00b00093          	li	ra,11
 2dc:	00d0a093          	slti	ra,ra,13
 2e0:	00100393          	li	t2,1
 2e4:	12709663          	bne	ra,t2,410 <fail>

000002e8 <test_18>:
 2e8:	01200193          	li	gp,18
 2ec:	00000213          	li	tp,0
 2f0:	00f00093          	li	ra,15
 2f4:	00a0a713          	slti	a4,ra,10
 2f8:	00070313          	mv	t1,a4
 2fc:	00120213          	add	tp,tp,1 # 1 <_start+0x1>
 300:	00200293          	li	t0,2
 304:	fe5216e3          	bne	tp,t0,2f0 <test_18+0x8>
 308:	00000393          	li	t2,0
 30c:	10731263          	bne	t1,t2,410 <fail>

00000310 <test_19>:
 310:	01300193          	li	gp,19
 314:	00000213          	li	tp,0
 318:	00a00093          	li	ra,10
 31c:	0100a713          	slti	a4,ra,16
 320:	00000013          	nop
 324:	00070313          	mv	t1,a4
 328:	00120213          	add	tp,tp,1 # 1 <_start+0x1>
 32c:	00200293          	li	t0,2
 330:	fe5214e3          	bne	tp,t0,318 <test_19+0x8>
 334:	00100393          	li	t2,1
 338:	0c731c63          	bne	t1,t2,410 <fail>

0000033c <test_20>:
 33c:	01400193          	li	gp,20
 340:	00000213          	li	tp,0
 344:	01000093          	li	ra,16
 348:	0090a713          	slti	a4,ra,9
 34c:	00000013          	nop
 350:	00000013          	nop
 354:	00070313          	mv	t1,a4
 358:	00120213          	add	tp,tp,1 # 1 <_start+0x1>
 35c:	00200293          	li	t0,2
 360:	fe5212e3          	bne	tp,t0,344 <test_20+0x8>
 364:	00000393          	li	t2,0
 368:	0a731463          	bne	t1,t2,410 <fail>

0000036c <test_21>:
 36c:	01500193          	li	gp,21
 370:	00000213          	li	tp,0
 374:	00b00093          	li	ra,11
 378:	00f0a713          	slti	a4,ra,15
 37c:	00120213          	add	tp,tp,1 # 1 <_start+0x1>
 380:	00200293          	li	t0,2
 384:	fe5218e3          	bne	tp,t0,374 <test_21+0x8>
 388:	00100393          	li	t2,1
 38c:	08771263          	bne	a4,t2,410 <fail>

00000390 <test_22>:
 390:	01600193          	li	gp,22
 394:	00000213          	li	tp,0
 398:	01100093          	li	ra,17
 39c:	00000013          	nop
 3a0:	0080a713          	slti	a4,ra,8
 3a4:	00120213          	add	tp,tp,1 # 1 <_start+0x1>
 3a8:	00200293          	li	t0,2
 3ac:	fe5216e3          	bne	tp,t0,398 <test_22+0x8>
 3b0:	00000393          	li	t2,0
 3b4:	04771e63          	bne	a4,t2,410 <fail>

000003b8 <test_23>:
 3b8:	01700193          	li	gp,23
 3bc:	00000213          	li	tp,0
 3c0:	00c00093          	li	ra,12
 3c4:	00000013          	nop
 3c8:	00000013          	nop
 3cc:	00e0a713          	slti	a4,ra,14
 3d0:	00120213          	add	tp,tp,1 # 1 <_start+0x1>
 3d4:	00200293          	li	t0,2
 3d8:	fe5214e3          	bne	tp,t0,3c0 <test_23+0x8>
 3dc:	00100393          	li	t2,1
 3e0:	02771863          	bne	a4,t2,410 <fail>

000003e4 <test_24>:
 3e4:	01800193          	li	gp,24
 3e8:	fff02093          	slti	ra,zero,-1
 3ec:	00000393          	li	t2,0
 3f0:	02709063          	bne	ra,t2,410 <fail>

000003f4 <test_25>:
 3f4:	01900193          	li	gp,25
 3f8:	00ff00b7          	lui	ra,0xff0
 3fc:	0ff08093          	add	ra,ra,255 # ff00ff <_end+0xfee0ff>
 400:	fff0a013          	slti	zero,ra,-1
 404:	00000393          	li	t2,0
 408:	00701463          	bne	zero,t2,410 <fail>
 40c:	02301863          	bne	zero,gp,43c <pass>

00000410 <fail>:
 410:	0ff0000f          	fence
 414:	00018063          	beqz	gp,414 <fail+0x4>
 418:	00119193          	sll	gp,gp,0x1
 41c:	0011e193          	or	gp,gp,1
 420:	05d00893          	li	a7,93
 424:	00018513          	mv	a0,gp
 428:	00100293          	li	t0,1
 42c:	00200337          	lui	t1,0x200
 430:	00830313          	add	t1,t1,8 # 200008 <_end+0x1fe008>
 434:	00532023          	sw	t0,0(t1)
 438:	00000073          	ecall

0000043c <pass>:
 43c:	0ff0000f          	fence
 440:	00100193          	li	gp,1
 444:	05d00893          	li	a7,93
 448:	00000513          	li	a0,0
 44c:	00100293          	li	t0,1
 450:	00200337          	lui	t1,0x200
 454:	00830313          	add	t1,t1,8 # 200008 <_end+0x1fe008>
 458:	00532023          	sw	t0,0(t1)
 45c:	00000073          	ecall
 460:	c0001073          	unimp
 464:	0000                	.2byte	0x0
 466:	0000                	.2byte	0x0
 468:	0000                	.2byte	0x0
 46a:	0000                	.2byte	0x0
 46c:	0000                	.2byte	0x0
 46e:	0000                	.2byte	0x0
 470:	0000                	.2byte	0x0
 472:	0000                	.2byte	0x0
 474:	0000                	.2byte	0x0
 476:	0000                	.2byte	0x0
 478:	0000                	.2byte	0x0
 47a:	0000                	.2byte	0x0
